0000              1   ;--------------------------------------------------------
0000              2   ; File Created by C51
0000              3   ; Version 1.0.0 #1034 (Dec 12 2012) (MSVC)
0000              4   ; This file was generated Thu Mar 20 16:52:48 2014
0000              5   ;--------------------------------------------------------
                  5   $name Test_Motor
                  6   $optc51 --model-small
0000              8            R_DSEG    segment data
0000              9            R_CSEG    segment code
0000             10            R_BSEG    segment bit
0000             11            R_XSEG    segment xdata
0000             12            R_PSEG    segment xdata
0000             13            R_ISEG    segment idata
0000             14            R_OSEG    segment data overlay
0000             15            BIT_BANK  segment data overlay
0000             16            R_HOME    segment code
0000             17            R_GSINIT  segment code
0000             18            R_IXSEG   segment xdata
0000             19            R_CONST   segment code
0000             20            R_XINIT   segment code
0000             21            R_DINIT   segment code
0000             22   
0000             23   ;--------------------------------------------------------
0000             24   ; Public variables in this module
0000             25   ;--------------------------------------------------------
0000             26            public _Motor_Set_PARM_3
0000             27            public _Motor_Set_PARM_2
0000             28            public _main
0000             29            public _updateUI
0000             30            public __c51_external_startup
0000             31            public _pwmcounter
0000             32            public _General_Init
0000             33            public _motor_r_direction
0000             34            public _motor_l_direction
0000             35            public _motor_r_speed
0000             36            public _motor_l_speed
0000             37            public _pwmcount
0000             38            public _Motor_Init
0000             39            public _Motor_Set
0000             40            public _Motor_Forward
0000             41            public _Motor_Backward
0000             42   ;--------------------------------------------------------
0000             43   ; Special Function Registers
0000             44   ;--------------------------------------------------------
0000             45   _ACC            DATA 0xe0
0000             46   _B              DATA 0xf0
0000             47   _PSW            DATA 0xd0
0000             48   _SP             DATA 0x81
0000             49   _SPX            DATA 0xef
0000             50   _DPL            DATA 0x82
0000             51   _DPH            DATA 0x83
0000             52   _DPLB           DATA 0xd4
0000             53   _DPHB           DATA 0xd5
0000             54   _PAGE           DATA 0xf6
0000             55   _AX             DATA 0xe1
0000             56   _BX             DATA 0xf7
0000             57   _DSPR           DATA 0xe2
0000             58   _FIRD           DATA 0xe3
0000             59   _MACL           DATA 0xe4
0000             60   _MACH           DATA 0xe5
0000             61   _PCON           DATA 0x87
0000             62   _AUXR           DATA 0x8e
0000             63   _AUXR1          DATA 0xa2
0000             64   _DPCF           DATA 0xa1
0000             65   _CKRL           DATA 0x97
0000             66   _CKCKON0        DATA 0x8f
0000             67   _CKCKON1        DATA 0xaf
0000             68   _CKSEL          DATA 0x85
0000             69   _CLKREG         DATA 0xae
0000             70   _OSCCON         DATA 0x85
0000             71   _IE             DATA 0xa8
0000             72   _IEN0           DATA 0xa8
0000             73   _IEN1           DATA 0xb1
0000             74   _IPH0           DATA 0xb7
0000             75   _IP             DATA 0xb8
0000             76   _IPL0           DATA 0xb8
0000             77   _IPH1           DATA 0xb3
0000             78   _IPL1           DATA 0xb2
0000             79   _P0             DATA 0x80
0000             80   _P1             DATA 0x90
0000             81   _P2             DATA 0xa0
0000             82   _P3             DATA 0xb0
0000             83   _P4             DATA 0xc0
0000             84   _P0M0           DATA 0xe6
0000             85   _P0M1           DATA 0xe7
0000             86   _P1M0           DATA 0xd6
0000             87   _P1M1           DATA 0xd7
0000             88   _P2M0           DATA 0xce
0000             89   _P2M1           DATA 0xcf
0000             90   _P3M0           DATA 0xc6
0000             91   _P3M1           DATA 0xc7
0000             92   _P4M0           DATA 0xbe
0000             93   _P4M1           DATA 0xbf
0000             94   _SCON           DATA 0x98
0000             95   _SBUF           DATA 0x99
0000             96   _SADEN          DATA 0xb9
0000             97   _SADDR          DATA 0xa9
0000             98   _BDRCON         DATA 0x9b
0000             99   _BRL            DATA 0x9a
0000            100   _TCON           DATA 0x88
0000            101   _TMOD           DATA 0x89
0000            102   _TCONB          DATA 0x91
0000            103   _TL0            DATA 0x8a
0000            104   _TH0            DATA 0x8c
0000            105   _TL1            DATA 0x8b
0000            106   _TH1            DATA 0x8d
0000            107   _RL0            DATA 0xf2
0000            108   _RH0            DATA 0xf4
0000            109   _RL1            DATA 0xf3
0000            110   _RH1            DATA 0xf5
0000            111   _WDTRST         DATA 0xa6
0000            112   _WDTPRG         DATA 0xa7
0000            113   _T2CON          DATA 0xc8
0000            114   _T2MOD          DATA 0xc9
0000            115   _RCAP2H         DATA 0xcb
0000            116   _RCAP2L         DATA 0xca
0000            117   _TH2            DATA 0xcd
0000            118   _TL2            DATA 0xcc
0000            119   _SPCON          DATA 0xc3
0000            120   _SPSTA          DATA 0xc4
0000            121   _SPDAT          DATA 0xc5
0000            122   _SSCON          DATA 0x93
0000            123   _SSCS           DATA 0x94
0000            124   _SSDAT          DATA 0x95
0000            125   _SSADR          DATA 0x96
0000            126   _KBLS           DATA 0x9c
0000            127   _KBE            DATA 0x9d
0000            128   _KBF            DATA 0x9e
0000            129   _KBMOD          DATA 0x9f
0000            130   _BMSEL          DATA 0x92
0000            131   _FCON           DATA 0xd2
0000            132   _EECON          DATA 0xd2
0000            133   _ACSRA          DATA 0xa3
0000            134   _ACSRB          DATA 0xab
0000            135   _AREF           DATA 0xbd
0000            136   _DADC           DATA 0xa4
0000            137   _DADI           DATA 0xa5
0000            138   _DADL           DATA 0xac
0000            139   _DADH           DATA 0xad
0000            140   _CCON           DATA 0xd8
0000            141   _CMOD           DATA 0xd9
0000            142   _CL             DATA 0xe9
0000            143   _CH             DATA 0xf9
0000            144   _CCAPM0         DATA 0xda
0000            145   _CCAPM1         DATA 0xdb
0000            146   _CCAPM2         DATA 0xdc
0000            147   _CCAPM3         DATA 0xdd
0000            148   _CCAPM4         DATA 0xde
0000            149   _CCAP0H         DATA 0xfa
0000            150   _CCAP1H         DATA 0xfb
0000            151   _CCAP2H         DATA 0xfc
0000            152   _CCAP3H         DATA 0xfd
0000            153   _CCAP4H         DATA 0xfe
0000            154   _CCAP0L         DATA 0xea
0000            155   _CCAP1L         DATA 0xeb
0000            156   _CCAP2L         DATA 0xec
0000            157   _CCAP3L         DATA 0xed
0000            158   _CCAP4L         DATA 0xee
0000            159   ;--------------------------------------------------------
0000            160   ; special function bits
0000            161   ;--------------------------------------------------------
0000            162   _ACC_0          BIT 0xe0
0000            163   _ACC_1          BIT 0xe1
0000            164   _ACC_2          BIT 0xe2
0000            165   _ACC_3          BIT 0xe3
0000            166   _ACC_4          BIT 0xe4
0000            167   _ACC_5          BIT 0xe5
0000            168   _ACC_6          BIT 0xe6
0000            169   _ACC_7          BIT 0xe7
0000            170   _B_0            BIT 0xf0
0000            171   _B_1            BIT 0xf1
0000            172   _B_2            BIT 0xf2
0000            173   _B_3            BIT 0xf3
0000            174   _B_4            BIT 0xf4
0000            175   _B_5            BIT 0xf5
0000            176   _B_6            BIT 0xf6
0000            177   _B_7            BIT 0xf7
0000            178   _P              BIT 0xd0
0000            179   _F1             BIT 0xd1
0000            180   _OV             BIT 0xd2
0000            181   _RS0            BIT 0xd3
0000            182   _RS1            BIT 0xd4
0000            183   _F0             BIT 0xd5
0000            184   _AC             BIT 0xd6
0000            185   _CY             BIT 0xd7
0000            186   _EX0            BIT 0xa8
0000            187   _ET0            BIT 0xa9
0000            188   _EX1            BIT 0xaa
0000            189   _ET1            BIT 0xab
0000            190   _ES             BIT 0xac
0000            191   _ET2            BIT 0xad
0000            192   _EC             BIT 0xae
0000            193   _EA             BIT 0xaf
0000            194   _PX0            BIT 0xb8
0000            195   _PT0            BIT 0xb9
0000            196   _PX1            BIT 0xba
0000            197   _PT1            BIT 0xbb
0000            198   _PS             BIT 0xbc
0000            199   _PT2            BIT 0xbd
0000            200   _IP0D           BIT 0xbf
0000            201   _PPCL           BIT 0xbe
0000            202   _PT2L           BIT 0xbd
0000            203   _PLS            BIT 0xbc
0000            204   _PT1L           BIT 0xbb
0000            205   _PX1L           BIT 0xba
0000            206   _PT0L           BIT 0xb9
0000            207   _PX0L           BIT 0xb8
0000            208   _P0_0           BIT 0x80
0000            209   _P0_1           BIT 0x81
0000            210   _P0_2           BIT 0x82
0000            211   _P0_3           BIT 0x83
0000            212   _P0_4           BIT 0x84
0000            213   _P0_5           BIT 0x85
0000            214   _P0_6           BIT 0x86
0000            215   _P0_7           BIT 0x87
0000            216   _P1_0           BIT 0x90
0000            217   _P1_1           BIT 0x91
0000            218   _P1_2           BIT 0x92
0000            219   _P1_3           BIT 0x93
0000            220   _P1_4           BIT 0x94
0000            221   _P1_5           BIT 0x95
0000            222   _P1_6           BIT 0x96
0000            223   _P1_7           BIT 0x97
0000            224   _P2_0           BIT 0xa0
0000            225   _P2_1           BIT 0xa1
0000            226   _P2_2           BIT 0xa2
0000            227   _P2_3           BIT 0xa3
0000            228   _P2_4           BIT 0xa4
0000            229   _P2_5           BIT 0xa5
0000            230   _P2_6           BIT 0xa6
0000            231   _P2_7           BIT 0xa7
0000            232   _P3_0           BIT 0xb0
0000            233   _P3_1           BIT 0xb1
0000            234   _P3_2           BIT 0xb2
0000            235   _P3_3           BIT 0xb3
0000            236   _P3_4           BIT 0xb4
0000            237   _P3_5           BIT 0xb5
0000            238   _P3_6           BIT 0xb6
0000            239   _P3_7           BIT 0xb7
0000            240   _RXD            BIT 0xb0
0000            241   _TXD            BIT 0xb1
0000            242   _INT0           BIT 0xb2
0000            243   _INT1           BIT 0xb3
0000            244   _T0             BIT 0xb4
0000            245   _T1             BIT 0xb5
0000            246   _WR             BIT 0xb6
0000            247   _RD             BIT 0xb7
0000            248   _P4_0           BIT 0xc0
0000            249   _P4_1           BIT 0xc1
0000            250   _P4_2           BIT 0xc2
0000            251   _P4_3           BIT 0xc3
0000            252   _P4_4           BIT 0xc4
0000            253   _P4_5           BIT 0xc5
0000            254   _P4_6           BIT 0xc6
0000            255   _P4_7           BIT 0xc7
0000            256   _RI             BIT 0x98
0000            257   _TI             BIT 0x99
0000            258   _RB8            BIT 0x9a
0000            259   _TB8            BIT 0x9b
0000            260   _REN            BIT 0x9c
0000            261   _SM2            BIT 0x9d
0000            262   _SM1            BIT 0x9e
0000            263   _SM0            BIT 0x9f
0000            264   _IT0            BIT 0x88
0000            265   _IE0            BIT 0x89
0000            266   _IT1            BIT 0x8a
0000            267   _IE1            BIT 0x8b
0000            268   _TR0            BIT 0x8c
0000            269   _TF0            BIT 0x8d
0000            270   _TR1            BIT 0x8e
0000            271   _TF1            BIT 0x8f
0000            272   _CP_RL2         BIT 0xc8
0000            273   _C_T2           BIT 0xc9
0000            274   _TR2            BIT 0xca
0000            275   _EXEN2          BIT 0xcb
0000            276   _TCLK           BIT 0xcc
0000            277   _RCLK           BIT 0xcd
0000            278   _EXF2           BIT 0xce
0000            279   _TF2            BIT 0xcf
0000            280   _CF             BIT 0xdf
0000            281   _CR             BIT 0xde
0000            282   _CCF4           BIT 0xdc
0000            283   _CCF3           BIT 0xdb
0000            284   _CCF2           BIT 0xda
0000            285   _CCF1           BIT 0xd9
0000            286   _CCF0           BIT 0xd8
0000            287   ;--------------------------------------------------------
0000            288   ; overlayable register banks
0000            289   ;--------------------------------------------------------
0000            290            rbank0 segment data overlay
0000            291   ;--------------------------------------------------------
0000            292   ; internal ram data
0000            293   ;--------------------------------------------------------
0000            294            rseg R_DSEG
0000            295   _pwmcount:
0000            296            ds 1
0001            297   _motor_l_speed:
0001            298            ds 1
0002            299   _motor_r_speed:
0002            300            ds 1
0003            301   _motor_l_direction:
0003            302            ds 2
0005            303   _motor_r_direction:
0005            304            ds 2
0007            305   _main_input_1_47:
0007            306            ds 2
0009            307   ;--------------------------------------------------------
0009            308   ; overlayable items in internal ram 
0009            309   ;--------------------------------------------------------
0000            310            rseg    R_OSEG
0000            311   _Motor_Set_PARM_2:
0000            312            ds 1
0001            313   _Motor_Set_PARM_3:
0001            314            ds 2
0003            315            rseg    R_OSEG
0003            316            rseg    R_OSEG
0003            317   ;--------------------------------------------------------
0003            318   ; indirectly addressable internal ram data
0003            319   ;--------------------------------------------------------
0000            320            rseg R_ISEG
0000            321   ;--------------------------------------------------------
0000            322   ; absolute internal ram data
0000            323   ;--------------------------------------------------------
0000            324            DSEG
0000            325   ;--------------------------------------------------------
0000            326   ; bit data
0000            327   ;--------------------------------------------------------
0000            328            rseg R_BSEG
0000            329   ;--------------------------------------------------------
0000            330   ; paged external ram data
0000            331   ;--------------------------------------------------------
0000            332            rseg R_PSEG
0000            333   ;--------------------------------------------------------
0000            334   ; external ram data
0000            335   ;--------------------------------------------------------
0000            336            rseg R_XSEG
0000            337   ;--------------------------------------------------------
0000            338   ; absolute external ram data
0000            339   ;--------------------------------------------------------
0000            340            XSEG
0000            341   ;--------------------------------------------------------
0000            342   ; external initialized ram data
0000            343   ;--------------------------------------------------------
0000            344            rseg R_IXSEG
0000            345            rseg R_HOME
0000            346            rseg R_GSINIT
0000            347            rseg R_CSEG
0000            348   ;--------------------------------------------------------
0000            349   ; Reset entry point and interrupt vectors
0000            350   ;--------------------------------------------------------
0000            351            CSEG at 0x0000
0000 020100     352            ljmp    _crt0
000B            353            CSEG at 0x000b
000B 020100     354            ljmp    _pwmcounter
000E            355   ;--------------------------------------------------------
000E            356   ; global & static initialisations
000E            357   ;--------------------------------------------------------
0000            358            rseg R_HOME
0000            359            rseg R_GSINIT
0000            360            rseg R_GSINIT
0000            361   ;--------------------------------------------------------
0000            362   ; data variables initialization
0000            363   ;--------------------------------------------------------
0000            364            rseg R_DINIT
0000            365            ; The linker places a 'ret' at the end of segment R_DINIT.
0000            366   ;--------------------------------------------------------
0000            367   ; code
0000            368   ;--------------------------------------------------------
0000            369            rseg R_CSEG
0000            370   ;------------------------------------------------------------
0000            371   ;Allocation info for local variables in function 'General_Init'
0000            372   ;------------------------------------------------------------
0000            373   ;------------------------------------------------------------
0000            374   ;        C:\Users\o6z8\Documents\GitHub\EECE281-56Wheels-Project2featWheels\/General.c:1: void General_Init(){
0000            375   ;        -----------------------------------------
0000            376   ;         function General_Init
0000            377   ;        -----------------------------------------
0000            378   _General_Init:
0000            379            using   0
0000            380   ;        C:\Users\o6z8\Documents\GitHub\EECE281-56Wheels-Project2featWheels\/General.c:3: P0M0=0;        P0M1=0;
0000 75E600     381            mov     _P0M0,#0x00
0003 75E700     382            mov     _P0M1,#0x00
0006            383   ;        C:\Users\o6z8\Documents\GitHub\EECE281-56Wheels-Project2featWheels\/General.c:4: P1M0=0;        P1M1=0;
0006 75D600     384            mov     _P1M0,#0x00
0009 75D700     385            mov     _P1M1,#0x00
000C            386   ;        C:\Users\o6z8\Documents\GitHub\EECE281-56Wheels-Project2featWheels\/General.c:5: P2M0=0;        P2M1=0;
000C 75CE00     387            mov     _P2M0,#0x00
000F 75CF00     388            mov     _P2M1,#0x00
0012            389   ;        C:\Users\o6z8\Documents\GitHub\EECE281-56Wheels-Project2featWheels\/General.c:6: P3M0=0;        P3M1=0;
0012 75C600     390            mov     _P3M0,#0x00
0015 75C700     391            mov     _P3M1,#0x00
0018            392   ;        C:\Users\o6z8\Documents\GitHub\EECE281-56Wheels-Project2featWheels\/General.c:7: AUXR=0B_0001_0001; // 1152 bytes of internal XDATA, P4.4 is a general purpose I/O
0018 758E11     393            mov     _AUXR,#0x11
001B            394   ;        C:\Users\o6z8\Documents\GitHub\EECE281-56Wheels-Project2featWheels\/General.c:8: P4M0=0;        P4M1=0;
001B 75BE00     395            mov     _P4M0,#0x00
001E 75BF00     396            mov     _P4M1,#0x00
0021            397   ;        C:\Users\o6z8\Documents\GitHub\EECE281-56Wheels-Project2featWheels\/General.c:11: PCON|=0x80;
0021 438780     398            orl     _PCON,#0x80
0024            399   ;        C:\Users\o6z8\Documents\GitHub\EECE281-56Wheels-Project2featWheels\/General.c:12: SCON = 0x52;
0024 759852     400            mov     _SCON,#0x52
0027            401   ;        C:\Users\o6z8\Documents\GitHub\EECE281-56Wheels-Project2featWheels\/General.c:13: BDRCON=0;
0027 759B00     402            mov     _BDRCON,#0x00
002A            403   ;        C:\Users\o6z8\Documents\GitHub\EECE281-56Wheels-Project2featWheels\/General.c:14: BRL=BRG_VAL;
002A 759AFA     404            mov     _BRL,#0xFA
002D            405   ;        C:\Users\o6z8\Documents\GitHub\EECE281-56Wheels-Project2featWheels\/General.c:15: BDRCON=BRR|TBCK|RBCK|SPD;
002D 759B1E     406            mov     _BDRCON,#0x1E
0030 22         407            ret
0031            408   ;------------------------------------------------------------
0031            409   ;Allocation info for local variables in function 'Motor_Init'
0031            410   ;------------------------------------------------------------
0031            411   ;------------------------------------------------------------
0031            412   ;        C:\Users\o6z8\Documents\GitHub\EECE281-56Wheels-Project2featWheels\/Motor.c:7: void Motor_Init()
0031            413   ;        -----------------------------------------
0031            414   ;         function Motor_Init
0031            415   ;        -----------------------------------------
0031            416   _Motor_Init:
0031            417   ;        C:\Users\o6z8\Documents\GitHub\EECE281-56Wheels-Project2featWheels\/Motor.c:9: printf("Motor Init\n");
0031 7480       418            mov     a,#__str_0
0033 C0E0       419            push    acc
0035 7486       420            mov     a,#(__str_0 >> 8)
0037 C0E0       421            push    acc
0039 7480       422            mov     a,#0x80
003B C0E0       423            push    acc
003D 120100     424            lcall   _printf
0040 1581       425            dec     sp
0042 1581       426            dec     sp
0044 1581       427            dec     sp
0046            428   ;        C:\Users\o6z8\Documents\GitHub\EECE281-56Wheels-Project2featWheels\/Motor.c:12: TR0=0; // Stop timer 0
0046 C28C       429            clr     _TR0
0048            430   ;        C:\Users\o6z8\Documents\GitHub\EECE281-56Wheels-Project2featWheels\/Motor.c:13: TMOD=0x01; // 16-bit timer
0048 758901     431            mov     _TMOD,#0x01
004B            432   ;        C:\Users\o6z8\Documents\GitHub\EECE281-56Wheels-Project2featWheels\/Motor.c:18: TH0=RH0=TIMER0_RELOAD_VALUE/0x100;
004B 75F4FF     433            mov     _RH0,#0xFF
004E 758CFF     434            mov     _TH0,#0xFF
0051            435   ;        C:\Users\o6z8\Documents\GitHub\EECE281-56Wheels-Project2featWheels\/Motor.c:19: TL0=RL0=TIMER0_RELOAD_VALUE%0x100;
0051 75F248     436            mov     _RL0,#0x48
0054 758A48     437            mov     _TL0,#0x48
0057            438   ;        C:\Users\o6z8\Documents\GitHub\EECE281-56Wheels-Project2featWheels\/Motor.c:20: TR0=1; // Start timer 0 (bit 4 in TCON)
0057 D28C       439            setb    _TR0
0059            440   ;        C:\Users\o6z8\Documents\GitHub\EECE281-56Wheels-Project2featWheels\/Motor.c:21: ET0=1; // Enable timer 0 interrupt
0059 D2A9       441            setb    _ET0
005B            442   ;        C:\Users\o6z8\Documents\GitHub\EECE281-56Wheels-Project2featWheels\/Motor.c:22: EA=1;  // Enable global interrupts
005B D2AF       443            setb    _EA
005D            444   ;        C:\Users\o6z8\Documents\GitHub\EECE281-56Wheels-Project2featWheels\/Motor.c:24: pwmcount=0;
005D 754000     445            mov     _pwmcount,#0x00
0060            446   ;        C:\Users\o6z8\Documents\GitHub\EECE281-56Wheels-Project2featWheels\/Motor.c:26: motor_l_speed=50;
0060 750032     447            mov     _motor_l_speed,#0x32
0063            448   ;        C:\Users\o6z8\Documents\GitHub\EECE281-56Wheels-Project2featWheels\/Motor.c:27: motor_r_speed=50;
0063 75C032     449            mov     _motor_r_speed,#0x32
0066            450   ;        C:\Users\o6z8\Documents\GitHub\EECE281-56Wheels-Project2featWheels\/Motor.c:28: motor_l_direction = MOTOR_FORWARD;
0066 758001     451            mov     _motor_l_direction,#0x01
0069 E4         452            clr     a
006A F581       453            mov     (_motor_l_direction + 1),a
006C            454   ;        C:\Users\o6z8\Documents\GitHub\EECE281-56Wheels-Project2featWheels\/Motor.c:29: motor_r_direction = MOTOR_BACKWARD;
006C E4         455            clr     a
006D F530       456            mov     _motor_r_direction,a
006F F531       457            mov     (_motor_r_direction + 1),a
0071 22         458            ret
0072            459   ;------------------------------------------------------------
0072            460   ;Allocation info for local variables in function 'pwmcounter'
0072            461   ;------------------------------------------------------------
0072            462   ;------------------------------------------------------------
0072            463   ;        C:\Users\o6z8\Documents\GitHub\EECE281-56Wheels-Project2featWheels\/Motor.c:39: void pwmcounter (void) interrupt 1
0072            464   ;        -----------------------------------------
0072            465   ;         function pwmcounter
0072            466   ;        -----------------------------------------
0072            467   _pwmcounter:
0072 C0E0       468            push    acc
0074 C0D0       469            push    psw
0076 75D000     470            mov     psw,#0x00
0079            471   ;        C:\Users\o6z8\Documents\GitHub\EECE281-56Wheels-Project2featWheels\/Motor.c:41: if(++pwmcount>99){
0079 0540       472            inc     _pwmcount
007B E540       473            mov     a,_pwmcount
007D 249C       474            add     a,#0xff - 0x63
007F 5001       475            jnc     L004002?
0081            476   ;        C:\Users\o6z8\Documents\GitHub\EECE281-56Wheels-Project2featWheels\/Motor.c:42: pwmcount=0;
0081 754000     477            mov     _pwmcount,#0x00
0084            478   L004002?:
0084            479   ;        C:\Users\o6z8\Documents\GitHub\EECE281-56Wheels-Project2featWheels\/Motor.c:44: if(motor_l_direction == MOTOR_FORWARD){
0084 7401       480            mov     a,#0x01
0086 B58000     481            cjne    a,_motor_l_direction,L004015?
0089 E4         482            clr     a
008A B58100     483            cjne    a,(_motor_l_direction + 1),L004015?
008D 8001       484            sjmp    L004016?
008F            485   L004015?:
008F 8001       486            sjmp    L004004?
0091            487   L004016?:
0091            488   ;        C:\Users\o6z8\Documents\GitHub\EECE281-56Wheels-Project2featWheels\/Motor.c:45: MOTOR_L_FORWARD                 =       (motor_l_speed>pwmcount)?1:0;
0091 C3         489            clr     c
0092 E540       490            mov     a,_pwmcount
0094 9500       491            subb    a,_motor_l_speed
0096 92C3       492            mov     _P4_3,c
0098            493   ;        C:\Users\o6z8\Documents\GitHub\EECE281-56Wheels-Project2featWheels\/Motor.c:46: MOTOR_L_BACKWARD        =       0;
0098 C2B7       494            clr     _P3_7
009A 8001       495            sjmp    L004005?
009C            496   L004004?:
009C            497   ;        C:\Users\o6z8\Documents\GitHub\EECE281-56Wheels-Project2featWheels\/Motor.c:49: MOTOR_L_BACKWARD        =       (motor_l_speed>pwmcount)?1:0;
009C C3         498            clr     c
009D E540       499            mov     a,_pwmcount
009F 9500       500            subb    a,_motor_l_speed
00A1 92B7       501            mov     _P3_7,c
00A3            502   ;        C:\Users\o6z8\Documents\GitHub\EECE281-56Wheels-Project2featWheels\/Motor.c:50: MOTOR_L_FORWARD                 =       0;
00A3 C2C3       503            clr     _P4_3
00A5            504   L004005?:
00A5            505   ;        C:\Users\o6z8\Documents\GitHub\EECE281-56Wheels-Project2featWheels\/Motor.c:52: if(motor_r_direction == MOTOR_FORWARD){
00A5 7401       506            mov     a,#0x01
00A7 B53000     507            cjne    a,_motor_r_direction,L004017?
00AA E4         508            clr     a
00AB B53100     509            cjne    a,(_motor_r_direction + 1),L004017?
00AE 8001       510            sjmp    L004018?
00B0            511   L004017?:
00B0 8001       512            sjmp    L004007?
00B2            513   L004018?:
00B2            514   ;        C:\Users\o6z8\Documents\GitHub\EECE281-56Wheels-Project2featWheels\/Motor.c:53: MOTOR_R_FORWARD                 =       (motor_r_speed>pwmcount)?1:0;
00B2 C3         515            clr     c
00B3 E540       516            mov     a,_pwmcount
00B5 95C0       517            subb    a,_motor_r_speed
00B7 92B6       518            mov     _P3_6,c
00B9            519   ;        C:\Users\o6z8\Documents\GitHub\EECE281-56Wheels-Project2featWheels\/Motor.c:54: MOTOR_R_BACKWARD        =       0;
00B9 C2B5       520            clr     _P3_5
00BB 8001       521            sjmp    L004009?
00BD            522   L004007?:
00BD            523   ;        C:\Users\o6z8\Documents\GitHub\EECE281-56Wheels-Project2featWheels\/Motor.c:57: MOTOR_R_BACKWARD        =       (motor_r_speed>pwmcount)?1:0;
00BD C3         524            clr     c
00BE E540       525            mov     a,_pwmcount
00C0 95C0       526            subb    a,_motor_r_speed
00C2 92B5       527            mov     _P3_5,c
00C4            528   ;        C:\Users\o6z8\Documents\GitHub\EECE281-56Wheels-Project2featWheels\/Motor.c:58: MOTOR_R_FORWARD                 =       0;
00C4 C2B6       529            clr     _P3_6
00C6            530   L004009?:
00C6 D0D0       531            pop     psw
00C8 D0E0       532            pop     acc
00CA 32         533            reti
00CB            534   ;        eliminated unneeded push/pop dpl
00CB            535   ;        eliminated unneeded push/pop dph
00CB            536   ;        eliminated unneeded push/pop b
00CB            537   ;------------------------------------------------------------
00CB            538   ;Allocation info for local variables in function 'Motor_Set'
00CB            539   ;------------------------------------------------------------
00CB            540   ;speed                     Allocated with name '_Motor_Set_PARM_2'
00CB            541   ;direction                 Allocated with name '_Motor_Set_PARM_3'
00CB            542   ;motor                     Allocated to registers r2 r3 
00CB            543   ;------------------------------------------------------------
00CB            544   ;        C:\Users\o6z8\Documents\GitHub\EECE281-56Wheels-Project2featWheels\/Motor.c:72: void Motor_Set(int motor, unsigned char speed, int direction){
00CB            545   ;        -----------------------------------------
00CB            546   ;         function Motor_Set
00CB            547   ;        -----------------------------------------
00CB            548   _Motor_Set:
00CB AA82       549            mov     r2,dpl
00CD AB83       550            mov     r3,dph
00CF            551   ;        C:\Users\o6z8\Documents\GitHub\EECE281-56Wheels-Project2featWheels\/Motor.c:73: if(motor == MOTOR_LEFT){
00CF EA         552            mov     a,r2
00D0 4B         553            orl     a,r3
00D1 7001       554            jnz     L005004?
00D3            555   ;        C:\Users\o6z8\Documents\GitHub\EECE281-56Wheels-Project2featWheels\/Motor.c:74: motor_l_speed = speed;
00D3 859000     556            mov     _motor_l_speed,_Motor_Set_PARM_2
00D6            557   ;        C:\Users\o6z8\Documents\GitHub\EECE281-56Wheels-Project2featWheels\/Motor.c:75: motor_l_direction = direction;
00D6 854080     558            mov     _motor_l_direction,_Motor_Set_PARM_3
00D9 854181     559            mov     (_motor_l_direction + 1),(_Motor_Set_PARM_3 + 1)
00DC 22         560            ret
00DD            561   L005004?:
00DD            562   ;        C:\Users\o6z8\Documents\GitHub\EECE281-56Wheels-Project2featWheels\/Motor.c:77: else if (motor == MOTOR_RIGHT){
00DD BA01C0     563            cjne    r2,#0x01,L005006?
00E0 BB00C0     564            cjne    r3,#0x00,L005006?
00E3            565   ;        C:\Users\o6z8\Documents\GitHub\EECE281-56Wheels-Project2featWheels\/Motor.c:78: motor_r_speed = speed;
00E3 8590C0     566            mov     _motor_r_speed,_Motor_Set_PARM_2
00E6            567   ;        C:\Users\o6z8\Documents\GitHub\EECE281-56Wheels-Project2featWheels\/Motor.c:79: motor_r_direction = direction;
00E6 854030     568            mov     _motor_r_direction,_Motor_Set_PARM_3
00E9 854131     569            mov     (_motor_r_direction + 1),(_Motor_Set_PARM_3 + 1)
00EC            570   L005006?:
00EC 22         571            ret
00ED            572   ;------------------------------------------------------------
00ED            573   ;Allocation info for local variables in function 'Motor_Forward'
00ED            574   ;------------------------------------------------------------
00ED            575   ;speed                     Allocated to registers r2 
00ED            576   ;------------------------------------------------------------
00ED            577   ;        C:\Users\o6z8\Documents\GitHub\EECE281-56Wheels-Project2featWheels\/Motor.c:84: void Motor_Forward(unsigned char speed){
00ED            578   ;        -----------------------------------------
00ED            579   ;         function Motor_Forward
00ED            580   ;        -----------------------------------------
00ED            581   _Motor_Forward:
00ED AA82       582            mov     r2,dpl
00EF            583   ;        C:\Users\o6z8\Documents\GitHub\EECE281-56Wheels-Project2featWheels\/Motor.c:85: motor_l_speed = speed;
00EF 8A00       584            mov     _motor_l_speed,r2
00F1            585   ;        C:\Users\o6z8\Documents\GitHub\EECE281-56Wheels-Project2featWheels\/Motor.c:86: motor_r_speed = speed;
00F1 8AC0       586            mov     _motor_r_speed,r2
00F3            587   ;        C:\Users\o6z8\Documents\GitHub\EECE281-56Wheels-Project2featWheels\/Motor.c:87: motor_l_direction = MOTOR_FORWARD;
00F3 758001     588            mov     _motor_l_direction,#0x01
00F6 E4         589            clr     a
00F7 F581       590            mov     (_motor_l_direction + 1),a
00F9            591   ;        C:\Users\o6z8\Documents\GitHub\EECE281-56Wheels-Project2featWheels\/Motor.c:88: motor_r_direction = MOTOR_FORWARD;
00F9 753001     592            mov     _motor_r_direction,#0x01
00FC E4         593            clr     a
00FD F531       594            mov     (_motor_r_direction + 1),a
00FF 22         595            ret
0100            596   ;------------------------------------------------------------
0100            597   ;Allocation info for local variables in function 'Motor_Backward'
0100            598   ;------------------------------------------------------------
0100            599   ;speed                     Allocated to registers r2 
0100            600   ;------------------------------------------------------------
0100            601   ;        C:\Users\o6z8\Documents\GitHub\EECE281-56Wheels-Project2featWheels\/Motor.c:91: void Motor_Backward(unsigned char speed){
0100            602   ;        -----------------------------------------
0100            603   ;         function Motor_Backward
0100            604   ;        -----------------------------------------
0100            605   _Motor_Backward:
0100 AA82       606            mov     r2,dpl
0102            607   ;        C:\Users\o6z8\Documents\GitHub\EECE281-56Wheels-Project2featWheels\/Motor.c:92: motor_l_speed = speed;
0102 8A00       608            mov     _motor_l_speed,r2
0104            609   ;        C:\Users\o6z8\Documents\GitHub\EECE281-56Wheels-Project2featWheels\/Motor.c:93: motor_r_speed = speed;
0104 8AC0       610            mov     _motor_r_speed,r2
0106            611   ;        C:\Users\o6z8\Documents\GitHub\EECE281-56Wheels-Project2featWheels\/Motor.c:94: motor_l_direction = MOTOR_BACKWARD;
0106            612   ;        C:\Users\o6z8\Documents\GitHub\EECE281-56Wheels-Project2featWheels\/Motor.c:95: motor_r_direction = MOTOR_BACKWARD;
0106 E4         613            clr     a
0107 F580       614            mov     _motor_l_direction,a
0109 F581       615            mov     (_motor_l_direction + 1),a
010B F530       616            mov     _motor_r_direction,a
010D F531       617            mov     (_motor_r_direction + 1),a
010F 22         618            ret
0110            619   ;------------------------------------------------------------
0110            620   ;Allocation info for local variables in function '_c51_external_startup'
0110            621   ;------------------------------------------------------------
0110            622   ;------------------------------------------------------------
0110            623   ;        C:\Users\o6z8\Documents\GitHub\EECE281-56Wheels-Project2featWheels\Test_Motor.c:4: unsigned char _c51_external_startup(void)
0110            624   ;        -----------------------------------------
0110            625   ;         function _c51_external_startup
0110            626   ;        -----------------------------------------
0110            627   __c51_external_startup:
0110            628   ;        C:\Users\o6z8\Documents\GitHub\EECE281-56Wheels-Project2featWheels\Test_Motor.c:6: General_Init();
0110 120100     629            lcall   _General_Init
0113            630   ;        C:\Users\o6z8\Documents\GitHub\EECE281-56Wheels-Project2featWheels\Test_Motor.c:7: Motor_Init();    
0113 120100     631            lcall   _Motor_Init
0116            632   ;        C:\Users\o6z8\Documents\GitHub\EECE281-56Wheels-Project2featWheels\Test_Motor.c:8: return 0;
0116 758200     633            mov     dpl,#0x00
0119 22         634            ret
011A            635   ;------------------------------------------------------------
011A            636   ;Allocation info for local variables in function 'updateUI'
011A            637   ;------------------------------------------------------------
011A            638   ;------------------------------------------------------------
011A            639   ;        C:\Users\o6z8\Documents\GitHub\EECE281-56Wheels-Project2featWheels\Test_Motor.c:16: void updateUI(){
011A            640   ;        -----------------------------------------
011A            641   ;         function updateUI
011A            642   ;        -----------------------------------------
011A            643   _updateUI:
011A            644   ;        C:\Users\o6z8\Documents\GitHub\EECE281-56Wheels-Project2featWheels\Test_Motor.c:18: printf( CLEAR_SCREEN );
011A 7400       645            mov     a,#__str_1
011C C0E0       646            push    acc
011E 748B       647            mov     a,#(__str_1 >> 8)
0120 C0E0       648            push    acc
0122 7480       649            mov     a,#0x80
0124 C0E0       650            push    acc
0126 120100     651            lcall   _printf
0129 1581       652            dec     sp
012B 1581       653            dec     sp
012D 1581       654            dec     sp
012F            655   ;        C:\Users\o6z8\Documents\GitHub\EECE281-56Wheels-Project2featWheels\Test_Motor.c:19: printf( FORE_BACK , COLOR_BLACK, COLOR_WHITE );
012F 7407       656            mov     a,#0x07
0131 C0E0       657            push    acc
0133 E4         658            clr     a
0134 C0E0       659            push    acc
0136 E4         660            clr     a
0137 C0E0       661            push    acc
0139 C0E0       662            push    acc
013B 7440       663            mov     a,#__str_2
013D C0E0       664            push    acc
013F 748B       665            mov     a,#(__str_2 >> 8)
0141 C0E0       666            push    acc
0143 7480       667            mov     a,#0x80
0145 C0E0       668            push    acc
0147 120100     669            lcall   _printf
014A E581       670            mov     a,sp
014C 24F9       671            add     a,#0xf9
014E F581       672            mov     sp,a
0150            673   ;        C:\Users\o6z8\Documents\GitHub\EECE281-56Wheels-Project2featWheels\Test_Motor.c:20: printf("ษออออออออออออหออออออออออออป\n");
0150 7480       674            mov     a,#__str_3
0152 C0E0       675            push    acc
0154 748B       676            mov     a,#(__str_3 >> 8)
0156 C0E0       677            push    acc
0158 7480       678            mov     a,#0x80
015A C0E0       679            push    acc
015C 120100     680            lcall   _printf
015F 1581       681            dec     sp
0161 1581       682            dec     sp
0163 1581       683            dec     sp
0165            684   ;        C:\Users\o6z8\Documents\GitHub\EECE281-56Wheels-Project2featWheels\Test_Motor.c:21: printf("บ Speed L    บ            บ\n");
0165 74C0       685            mov     a,#__str_4
0167 C0E0       686            push    acc
0169 748B       687            mov     a,#(__str_4 >> 8)
016B C0E0       688            push    acc
016D 7480       689            mov     a,#0x80
016F C0E0       690            push    acc
0171 120100     691            lcall   _printf
0174 1581       692            dec     sp
0176 1581       693            dec     sp
0178 1581       694            dec     sp
017A            695   ;        C:\Users\o6z8\Documents\GitHub\EECE281-56Wheels-Project2featWheels\Test_Motor.c:22: printf("ฬออออออออออออฮออออออออออออน\n");
017A 7400       696            mov     a,#__str_5
017C C0E0       697            push    acc
017E 748C       698            mov     a,#(__str_5 >> 8)
0180 C0E0       699            push    acc
0182 7480       700            mov     a,#0x80
0184 C0E0       701            push    acc
0186 120100     702            lcall   _printf
0189 1581       703            dec     sp
018B 1581       704            dec     sp
018D 1581       705            dec     sp
018F            706   ;        C:\Users\o6z8\Documents\GitHub\EECE281-56Wheels-Project2featWheels\Test_Motor.c:23: printf("บ Speed R    บ            บ\n");
018F 7440       707            mov     a,#__str_6
0191 C0E0       708            push    acc
0193 748C       709            mov     a,#(__str_6 >> 8)
0195 C0E0       710            push    acc
0197 7480       711            mov     a,#0x80
0199 C0E0       712            push    acc
019B 120100     713            lcall   _printf
019E 1581       714            dec     sp
01A0 1581       715            dec     sp
01A2 1581       716            dec     sp
01A4            717   ;        C:\Users\o6z8\Documents\GitHub\EECE281-56Wheels-Project2featWheels\Test_Motor.c:24: printf("ฬออออออออออออฮออออออออออออน\n");
01A4 7400       718            mov     a,#__str_5
01A6 C0E0       719            push    acc
01A8 748C       720            mov     a,#(__str_5 >> 8)
01AA C0E0       721            push    acc
01AC 7480       722            mov     a,#0x80
01AE C0E0       723            push    acc
01B0 120100     724            lcall   _printf
01B3 1581       725            dec     sp
01B5 1581       726            dec     sp
01B7 1581       727            dec     sp
01B9            728   ;        C:\Users\o6z8\Documents\GitHub\EECE281-56Wheels-Project2featWheels\Test_Motor.c:25: printf("บ Direction Lบ            บ\n");
01B9 7480       729            mov     a,#__str_7
01BB C0E0       730            push    acc
01BD 748C       731            mov     a,#(__str_7 >> 8)
01BF C0E0       732            push    acc
01C1 7480       733            mov     a,#0x80
01C3 C0E0       734            push    acc
01C5 120100     735            lcall   _printf
01C8 1581       736            dec     sp
01CA 1581       737            dec     sp
01CC 1581       738            dec     sp
01CE            739   ;        C:\Users\o6z8\Documents\GitHub\EECE281-56Wheels-Project2featWheels\Test_Motor.c:26: printf("ฬออออออออออออฮออออออออออออน\n");
01CE 7400       740            mov     a,#__str_5
01D0 C0E0       741            push    acc
01D2 748C       742            mov     a,#(__str_5 >> 8)
01D4 C0E0       743            push    acc
01D6 7480       744            mov     a,#0x80
01D8 C0E0       745            push    acc
01DA 120100     746            lcall   _printf
01DD 1581       747            dec     sp
01DF 1581       748            dec     sp
01E1 1581       749            dec     sp
01E3            750   ;        C:\Users\o6z8\Documents\GitHub\EECE281-56Wheels-Project2featWheels\Test_Motor.c:27: printf("บ Direction Rบ            บ\n");
01E3 74C0       751            mov     a,#__str_8
01E5 C0E0       752            push    acc
01E7 748C       753            mov     a,#(__str_8 >> 8)
01E9 C0E0       754            push    acc
01EB 7480       755            mov     a,#0x80
01ED C0E0       756            push    acc
01EF 120100     757            lcall   _printf
01F2 1581       758            dec     sp
01F4 1581       759            dec     sp
01F6 1581       760            dec     sp
01F8            761   ;        C:\Users\o6z8\Documents\GitHub\EECE281-56Wheels-Project2featWheels\Test_Motor.c:28: printf("ฬออออออออออออฮออออออออออออน\n");
01F8 7400       762            mov     a,#__str_5
01FA C0E0       763            push    acc
01FC 748C       764            mov     a,#(__str_5 >> 8)
01FE C0E0       765            push    acc
0200 7480       766            mov     a,#0x80
0202 C0E0       767            push    acc
0204 120100     768            lcall   _printf
0207 1581       769            dec     sp
0209 1581       770            dec     sp
020B 1581       771            dec     sp
020D            772   ;        C:\Users\o6z8\Documents\GitHub\EECE281-56Wheels-Project2featWheels\Test_Motor.c:29: printf("บ            บ            บ\n");
020D 7400       773            mov     a,#__str_9
020F C0E0       774            push    acc
0211 748D       775            mov     a,#(__str_9 >> 8)
0213 C0E0       776            push    acc
0215 7480       777            mov     a,#0x80
0217 C0E0       778            push    acc
0219 120100     779            lcall   _printf
021C 1581       780            dec     sp
021E 1581       781            dec     sp
0220 1581       782            dec     sp
0222            783   ;        C:\Users\o6z8\Documents\GitHub\EECE281-56Wheels-Project2featWheels\Test_Motor.c:30: printf("ศออออออออออออสออออออออออออผ\n");
0222 7440       784            mov     a,#__str_10
0224 C0E0       785            push    acc
0226 748D       786            mov     a,#(__str_10 >> 8)
0228 C0E0       787            push    acc
022A 7480       788            mov     a,#0x80
022C C0E0       789            push    acc
022E 120100     790            lcall   _printf
0231 1581       791            dec     sp
0233 1581       792            dec     sp
0235 1581       793            dec     sp
0237            794   ;        C:\Users\o6z8\Documents\GitHub\EECE281-56Wheels-Project2featWheels\Test_Motor.c:31: printf( GOTO_YX , 2, 18);
0237 7412       795            mov     a,#0x12
0239 C0E0       796            push    acc
023B E4         797            clr     a
023C C0E0       798            push    acc
023E 7402       799            mov     a,#0x02
0240 C0E0       800            push    acc
0242 E4         801            clr     a
0243 C0E0       802            push    acc
0245 7480       803            mov     a,#__str_11
0247 C0E0       804            push    acc
0249 748D       805            mov     a,#(__str_11 >> 8)
024B C0E0       806            push    acc
024D 7480       807            mov     a,#0x80
024F C0E0       808            push    acc
0251 120100     809            lcall   _printf
0254 E581       810            mov     a,sp
0256 24F9       811            add     a,#0xf9
0258 F581       812            mov     sp,a
025A            813   ;        C:\Users\o6z8\Documents\GitHub\EECE281-56Wheels-Project2featWheels\Test_Motor.c:32: printf( FORE_BACK , COLOR_RED, COLOR_WHITE );
025A 7407       814            mov     a,#0x07
025C C0E0       815            push    acc
025E E4         816            clr     a
025F C0E0       817            push    acc
0261 7401       818            mov     a,#0x01
0263 C0E0       819            push    acc
0265 E4         820            clr     a
0266 C0E0       821            push    acc
0268 7440       822            mov     a,#__str_2
026A C0E0       823            push    acc
026C 748B       824            mov     a,#(__str_2 >> 8)
026E C0E0       825            push    acc
0270 7480       826            mov     a,#0x80
0272 C0E0       827            push    acc
0274 120100     828            lcall   _printf
0277 E581       829            mov     a,sp
0279 24F9       830            add     a,#0xf9
027B F581       831            mov     sp,a
027D            832   ;        C:\Users\o6z8\Documents\GitHub\EECE281-56Wheels-Project2featWheels\Test_Motor.c:33: printf("%d", motor_l_speed);
027D AA00       833            mov     r2,_motor_l_speed
027F 7B00       834            mov     r3,#0x00
0281 C002       835            push    ar2
0283 C003       836            push    ar3
0285 74C0       837            mov     a,#__str_12
0287 C0E0       838            push    acc
0289 748D       839            mov     a,#(__str_12 >> 8)
028B C0E0       840            push    acc
028D 7480       841            mov     a,#0x80
028F C0E0       842            push    acc
0291 120100     843            lcall   _printf
0294 E581       844            mov     a,sp
0296 24FB       845            add     a,#0xfb
0298 F581       846            mov     sp,a
029A            847   ;        C:\Users\o6z8\Documents\GitHub\EECE281-56Wheels-Project2featWheels\Test_Motor.c:34: printf( GOTO_YX , 4, 18);
029A 7412       848            mov     a,#0x12
029C C0E0       849            push    acc
029E E4         850            clr     a
029F C0E0       851            push    acc
02A1 7404       852            mov     a,#0x04
02A3 C0E0       853            push    acc
02A5 E4         854            clr     a
02A6 C0E0       855            push    acc
02A8 7480       856            mov     a,#__str_11
02AA C0E0       857            push    acc
02AC 748D       858            mov     a,#(__str_11 >> 8)
02AE C0E0       859            push    acc
02B0 7480       860            mov     a,#0x80
02B2 C0E0       861            push    acc
02B4 120100     862            lcall   _printf
02B7 E581       863            mov     a,sp
02B9 24F9       864            add     a,#0xf9
02BB F581       865            mov     sp,a
02BD            866   ;        C:\Users\o6z8\Documents\GitHub\EECE281-56Wheels-Project2featWheels\Test_Motor.c:35: printf("%d", motor_r_speed);
02BD AAC0       867            mov     r2,_motor_r_speed
02BF 7B00       868            mov     r3,#0x00
02C1 C002       869            push    ar2
02C3 C003       870            push    ar3
02C5 74C0       871            mov     a,#__str_12
02C7 C0E0       872            push    acc
02C9 748D       873            mov     a,#(__str_12 >> 8)
02CB C0E0       874            push    acc
02CD 7480       875            mov     a,#0x80
02CF C0E0       876            push    acc
02D1 120100     877            lcall   _printf
02D4 E581       878            mov     a,sp
02D6 24FB       879            add     a,#0xfb
02D8 F581       880            mov     sp,a
02DA            881   ;        C:\Users\o6z8\Documents\GitHub\EECE281-56Wheels-Project2featWheels\Test_Motor.c:36: printf( GOTO_YX , 6, 18);
02DA 7412       882            mov     a,#0x12
02DC C0E0       883            push    acc
02DE E4         884            clr     a
02DF C0E0       885            push    acc
02E1 7406       886            mov     a,#0x06
02E3 C0E0       887            push    acc
02E5 E4         888            clr     a
02E6 C0E0       889            push    acc
02E8 7480       890            mov     a,#__str_11
02EA C0E0       891            push    acc
02EC 748D       892            mov     a,#(__str_11 >> 8)
02EE C0E0       893            push    acc
02F0 7480       894            mov     a,#0x80
02F2 C0E0       895            push    acc
02F4 120100     896            lcall   _printf
02F7 E581       897            mov     a,sp
02F9 24F9       898            add     a,#0xf9
02FB F581       899            mov     sp,a
02FD            900   ;        C:\Users\o6z8\Documents\GitHub\EECE281-56Wheels-Project2featWheels\Test_Motor.c:37: printf("%s", (motor_l_direction ? "Fwd ":"Rev"));
02FD E580       901            mov     a,_motor_l_direction
02FF 4581       902            orl     a,(_motor_l_direction + 1)
0301 6001       903            jz      L009003?
0303 7A40       904            mov     r2,#__str_14
0305 7B8E       905            mov     r3,#(__str_14 >> 8)
0307 8001       906            sjmp    L009004?
0309            907   L009003?:
0309 7AC0       908            mov     r2,#__str_15
030B 7B8E       909            mov     r3,#(__str_15 >> 8)
030D            910   L009004?:
030D 7C80       911            mov     r4,#0x80
030F C002       912            push    ar2
0311 C003       913            push    ar3
0313 C004       914            push    ar4
0315 7400       915            mov     a,#__str_13
0317 C0E0       916            push    acc
0319 748F       917            mov     a,#(__str_13 >> 8)
031B C0E0       918            push    acc
031D 7480       919            mov     a,#0x80
031F C0E0       920            push    acc
0321 120100     921            lcall   _printf
0324 E581       922            mov     a,sp
0326 24FA       923            add     a,#0xfa
0328 F581       924            mov     sp,a
032A            925   ;        C:\Users\o6z8\Documents\GitHub\EECE281-56Wheels-Project2featWheels\Test_Motor.c:38: printf( GOTO_YX , 8, 18);
032A 7412       926            mov     a,#0x12
032C C0E0       927            push    acc
032E E4         928            clr     a
032F C0E0       929            push    acc
0331 7408       930            mov     a,#0x08
0333 C0E0       931            push    acc
0335 E4         932            clr     a
0336 C0E0       933            push    acc
0338 7480       934            mov     a,#__str_11
033A C0E0       935            push    acc
033C 748D       936            mov     a,#(__str_11 >> 8)
033E C0E0       937            push    acc
0340 7480       938            mov     a,#0x80
0342 C0E0       939            push    acc
0344 120100     940            lcall   _printf
0347 E581       941            mov     a,sp
0349 24F9       942            add     a,#0xf9
034B F581       943            mov     sp,a
034D            944   ;        C:\Users\o6z8\Documents\GitHub\EECE281-56Wheels-Project2featWheels\Test_Motor.c:39: printf("%s", (motor_r_direction ? "Fwd ":"Rev"));   
034D E530       945            mov     a,_motor_r_direction
034F 4531       946            orl     a,(_motor_r_direction + 1)
0351 6001       947            jz      L009005?
0353 7A40       948            mov     r2,#__str_14
0355 7B8E       949            mov     r3,#(__str_14 >> 8)
0357 8001       950            sjmp    L009006?
0359            951   L009005?:
0359 7AC0       952            mov     r2,#__str_15
035B 7B8E       953            mov     r3,#(__str_15 >> 8)
035D            954   L009006?:
035D 7C80       955            mov     r4,#0x80
035F C002       956            push    ar2
0361 C003       957            push    ar3
0363 C004       958            push    ar4
0365 7400       959            mov     a,#__str_13
0367 C0E0       960            push    acc
0369 748F       961            mov     a,#(__str_13 >> 8)
036B C0E0       962            push    acc
036D 7480       963            mov     a,#0x80
036F C0E0       964            push    acc
0371 120100     965            lcall   _printf
0374 E581       966            mov     a,sp
0376 24FA       967            add     a,#0xfa
0378 F581       968            mov     sp,a
037A 22         969            ret
037B            970   ;------------------------------------------------------------
037B            971   ;Allocation info for local variables in function 'main'
037B            972   ;------------------------------------------------------------
037B            973   ;input                     Allocated with name '_main_input_1_47'
037B            974   ;------------------------------------------------------------
037B            975   ;        C:\Users\o6z8\Documents\GitHub\EECE281-56Wheels-Project2featWheels\Test_Motor.c:42: void main (void)
037B            976   ;        -----------------------------------------
037B            977   ;         function main
037B            978   ;        -----------------------------------------
037B            979   _main:
037B            980   ;        C:\Users\o6z8\Documents\GitHub\EECE281-56Wheels-Project2featWheels\Test_Motor.c:46: while(1){
037B            981   L010002?:
037B            982   ;        C:\Users\o6z8\Documents\GitHub\EECE281-56Wheels-Project2featWheels\Test_Motor.c:47: printf( CLEAR_SCREEN);
037B 7400       983            mov     a,#__str_1
037D C0E0       984            push    acc
037F 748B       985            mov     a,#(__str_1 >> 8)
0381 C0E0       986            push    acc
0383 7480       987            mov     a,#0x80
0385 C0E0       988            push    acc
0387 120100     989            lcall   _printf
038A 1581       990            dec     sp
038C 1581       991            dec     sp
038E 1581       992            dec     sp
0390            993   ;        C:\Users\o6z8\Documents\GitHub\EECE281-56Wheels-Project2featWheels\Test_Motor.c:49: Motor_Set(MOTOR_LEFT, 0, MOTOR_FORWARD);
0390 759000     994            mov     _Motor_Set_PARM_2,#0x00
0393 754001     995            mov     _Motor_Set_PARM_3,#0x01
0396 E4         996            clr     a
0397 F541       997            mov     (_Motor_Set_PARM_3 + 1),a
0399 900000     998            mov     dptr,#0x0000
039C 120100     999            lcall   _Motor_Set
039F           1000   ;        C:\Users\o6z8\Documents\GitHub\EECE281-56Wheels-Project2featWheels\Test_Motor.c:50: Motor_Set(MOTOR_RIGHT, 0, MOTOR_FORWARD);
039F 759000    1001            mov     _Motor_Set_PARM_2,#0x00
03A2 754001    1002            mov     _Motor_Set_PARM_3,#0x01
03A5 E4        1003            clr     a
03A6 F541      1004            mov     (_Motor_Set_PARM_3 + 1),a
03A8 900001    1005            mov     dptr,#0x0001
03AB 120100    1006            lcall   _Motor_Set
03AE           1007   ;        C:\Users\o6z8\Documents\GitHub\EECE281-56Wheels-Project2featWheels\Test_Motor.c:51: printf("Nothing is moving (Enter anything please) \n");
03AE 7400      1008            mov     a,#__str_16
03B0 C0E0      1009            push    acc
03B2 7490      1010            mov     a,#(__str_16 >> 8)
03B4 C0E0      1011            push    acc
03B6 7480      1012            mov     a,#0x80
03B8 C0E0      1013            push    acc
03BA 120100    1014            lcall   _printf
03BD 1581      1015            dec     sp
03BF 1581      1016            dec     sp
03C1 1581      1017            dec     sp
03C3           1018   ;        C:\Users\o6z8\Documents\GitHub\EECE281-56Wheels-Project2featWheels\Test_Motor.c:52: scanf("%d", &input);
03C3 7400      1019            mov     a,#_main_input_1_47
03C5 C0E0      1020            push    acc
03C7 7486      1021            mov     a,#(_main_input_1_47 >> 8)
03C9 C0E0      1022            push    acc
03CB 7440      1023            mov     a,#0x40
03CD C0E0      1024            push    acc
03CF 74C0      1025            mov     a,#__str_12
03D1 C0E0      1026            push    acc
03D3 748D      1027            mov     a,#(__str_12 >> 8)
03D5 C0E0      1028            push    acc
03D7 7480      1029            mov     a,#0x80
03D9 C0E0      1030            push    acc
03DB 120100    1031            lcall   _scanf
03DE E581      1032            mov     a,sp
03E0 24FA      1033            add     a,#0xfa
03E2 F581      1034            mov     sp,a
03E4           1035   ;        C:\Users\o6z8\Documents\GitHub\EECE281-56Wheels-Project2featWheels\Test_Motor.c:54: Motor_Set(MOTOR_LEFT, 100, MOTOR_FORWARD);
03E4 759064    1036            mov     _Motor_Set_PARM_2,#0x64
03E7 754001    1037            mov     _Motor_Set_PARM_3,#0x01
03EA E4        1038            clr     a
03EB F541      1039            mov     (_Motor_Set_PARM_3 + 1),a
03ED 900000    1040            mov     dptr,#0x0000
03F0 120100    1041            lcall   _Motor_Set
03F3           1042   ;        C:\Users\o6z8\Documents\GitHub\EECE281-56Wheels-Project2featWheels\Test_Motor.c:55: Motor_Set(MOTOR_RIGHT, 0, MOTOR_FORWARD);
03F3 759000    1043            mov     _Motor_Set_PARM_2,#0x00
03F6 754001    1044            mov     _Motor_Set_PARM_3,#0x01
03F9 E4        1045            clr     a
03FA F541      1046            mov     (_Motor_Set_PARM_3 + 1),a
03FC 900001    1047            mov     dptr,#0x0001
03FF 120100    1048            lcall   _Motor_Set
0402           1049   ;        C:\Users\o6z8\Documents\GitHub\EECE281-56Wheels-Project2featWheels\Test_Motor.c:56: printf("left motor moving forward at 100 speed (Enter anything please) \n");
0402 7480      1050            mov     a,#__str_17
0404 C0E0      1051            push    acc
0406 7490      1052            mov     a,#(__str_17 >> 8)
0408 C0E0      1053            push    acc
040A 7480      1054            mov     a,#0x80
040C C0E0      1055            push    acc
040E 120100    1056            lcall   _printf
0411 1581      1057            dec     sp
0413 1581      1058            dec     sp
0415 1581      1059            dec     sp
0417           1060   ;        C:\Users\o6z8\Documents\GitHub\EECE281-56Wheels-Project2featWheels\Test_Motor.c:57: scanf("%d", &input);
0417 7400      1061            mov     a,#_main_input_1_47
0419 C0E0      1062            push    acc
041B 7486      1063            mov     a,#(_main_input_1_47 >> 8)
041D C0E0      1064            push    acc
041F 7440      1065            mov     a,#0x40
0421 C0E0      1066            push    acc
0423 74C0      1067            mov     a,#__str_12
0425 C0E0      1068            push    acc
0427 748D      1069            mov     a,#(__str_12 >> 8)
0429 C0E0      1070            push    acc
042B 7480      1071            mov     a,#0x80
042D C0E0      1072            push    acc
042F 120100    1073            lcall   _scanf
0432 E581      1074            mov     a,sp
0434 24FA      1075            add     a,#0xfa
0436 F581      1076            mov     sp,a
0438           1077   ;        C:\Users\o6z8\Documents\GitHub\EECE281-56Wheels-Project2featWheels\Test_Motor.c:59: Motor_Set(MOTOR_LEFT, 100, MOTOR_BACKWARD);
0438 759064    1078            mov     _Motor_Set_PARM_2,#0x64
043B E4        1079            clr     a
043C F540      1080            mov     _Motor_Set_PARM_3,a
043E F541      1081            mov     (_Motor_Set_PARM_3 + 1),a
0440 F582      1082            mov     dpl,a
0442 F583      1083            mov     dph,a
0444 120100    1084            lcall   _Motor_Set
0447           1085   ;        C:\Users\o6z8\Documents\GitHub\EECE281-56Wheels-Project2featWheels\Test_Motor.c:60: Motor_Set(MOTOR_RIGHT, 0, MOTOR_FORWARD);           
0447 759000    1086            mov     _Motor_Set_PARM_2,#0x00
044A 754001    1087            mov     _Motor_Set_PARM_3,#0x01
044D E4        1088            clr     a
044E F541      1089            mov     (_Motor_Set_PARM_3 + 1),a
0450 900001    1090            mov     dptr,#0x0001
0453 120100    1091            lcall   _Motor_Set
0456           1092   ;        C:\Users\o6z8\Documents\GitHub\EECE281-56Wheels-Project2featWheels\Test_Motor.c:61: printf("left motor moving backward at 100 speed (Enter anything please) \n");
0456 74C0      1093            mov     a,#__str_18
0458 C0E0      1094            push    acc
045A 7490      1095            mov     a,#(__str_18 >> 8)
045C C0E0      1096            push    acc
045E 7480      1097            mov     a,#0x80
0460 C0E0      1098            push    acc
0462 120100    1099            lcall   _printf
0465 1581      1100            dec     sp
0467 1581      1101            dec     sp
0469 1581      1102            dec     sp
046B           1103   ;        C:\Users\o6z8\Documents\GitHub\EECE281-56Wheels-Project2featWheels\Test_Motor.c:62: scanf("%d", &input);
046B 7400      1104            mov     a,#_main_input_1_47
046D C0E0      1105            push    acc
046F 7486      1106            mov     a,#(_main_input_1_47 >> 8)
0471 C0E0      1107            push    acc
0473 7440      1108            mov     a,#0x40
0475 C0E0      1109            push    acc
0477 74C0      1110            mov     a,#__str_12
0479 C0E0      1111            push    acc
047B 748D      1112            mov     a,#(__str_12 >> 8)
047D C0E0      1113            push    acc
047F 7480      1114            mov     a,#0x80
0481 C0E0      1115            push    acc
0483 120100    1116            lcall   _scanf
0486 E581      1117            mov     a,sp
0488 24FA      1118            add     a,#0xfa
048A F581      1119            mov     sp,a
048C           1120   ;        C:\Users\o6z8\Documents\GitHub\EECE281-56Wheels-Project2featWheels\Test_Motor.c:64: Motor_Set(MOTOR_LEFT, 0, MOTOR_FORWARD);
048C 759000    1121            mov     _Motor_Set_PARM_2,#0x00
048F 754001    1122            mov     _Motor_Set_PARM_3,#0x01
0492 E4        1123            clr     a
0493 F541      1124            mov     (_Motor_Set_PARM_3 + 1),a
0495 900000    1125            mov     dptr,#0x0000
0498 120100    1126            lcall   _Motor_Set
049B           1127   ;        C:\Users\o6z8\Documents\GitHub\EECE281-56Wheels-Project2featWheels\Test_Motor.c:65: Motor_Set(MOTOR_RIGHT, 100, MOTOR_FORWARD);
049B 759064    1128            mov     _Motor_Set_PARM_2,#0x64
049E 754001    1129            mov     _Motor_Set_PARM_3,#0x01
04A1 E4        1130            clr     a
04A2 F541      1131            mov     (_Motor_Set_PARM_3 + 1),a
04A4 900001    1132            mov     dptr,#0x0001
04A7 120100    1133            lcall   _Motor_Set
04AA           1134   ;        C:\Users\o6z8\Documents\GitHub\EECE281-56Wheels-Project2featWheels\Test_Motor.c:66: printf("right motor moving forward at 100 speed (Enter anything please) \n");
04AA 7400      1135            mov     a,#__str_19
04AC C0E0      1136            push    acc
04AE 7491      1137            mov     a,#(__str_19 >> 8)
04B0 C0E0      1138            push    acc
04B2 7480      1139            mov     a,#0x80
04B4 C0E0      1140            push    acc
04B6 120100    1141            lcall   _printf
04B9 1581      1142            dec     sp
04BB 1581      1143            dec     sp
04BD 1581      1144            dec     sp
04BF           1145   ;        C:\Users\o6z8\Documents\GitHub\EECE281-56Wheels-Project2featWheels\Test_Motor.c:67: scanf("%d", &input);
04BF 7400      1146            mov     a,#_main_input_1_47
04C1 C0E0      1147            push    acc
04C3 7486      1148            mov     a,#(_main_input_1_47 >> 8)
04C5 C0E0      1149            push    acc
04C7 7440      1150            mov     a,#0x40
04C9 C0E0      1151            push    acc
04CB 74C0      1152            mov     a,#__str_12
04CD C0E0      1153            push    acc
04CF 748D      1154            mov     a,#(__str_12 >> 8)
04D1 C0E0      1155            push    acc
04D3 7480      1156            mov     a,#0x80
04D5 C0E0      1157            push    acc
04D7 120100    1158            lcall   _scanf
04DA E581      1159            mov     a,sp
04DC 24FA      1160            add     a,#0xfa
04DE F581      1161            mov     sp,a
04E0           1162   ;        C:\Users\o6z8\Documents\GitHub\EECE281-56Wheels-Project2featWheels\Test_Motor.c:69: Motor_Set(MOTOR_LEFT, 0, MOTOR_FORWARD);
04E0 759000    1163            mov     _Motor_Set_PARM_2,#0x00
04E3 754001    1164            mov     _Motor_Set_PARM_3,#0x01
04E6 E4        1165            clr     a
04E7 F541      1166            mov     (_Motor_Set_PARM_3 + 1),a
04E9 900000    1167            mov     dptr,#0x0000
04EC 120100    1168            lcall   _Motor_Set
04EF           1169   ;        C:\Users\o6z8\Documents\GitHub\EECE281-56Wheels-Project2featWheels\Test_Motor.c:70: Motor_Set(MOTOR_RIGHT, 100, MOTOR_BACKWARD);
04EF 759064    1170            mov     _Motor_Set_PARM_2,#0x64
04F2 E4        1171            clr     a
04F3 F540      1172            mov     _Motor_Set_PARM_3,a
04F5 F541      1173            mov     (_Motor_Set_PARM_3 + 1),a
04F7 900001    1174            mov     dptr,#0x0001
04FA 120100    1175            lcall   _Motor_Set
04FD           1176   ;        C:\Users\o6z8\Documents\GitHub\EECE281-56Wheels-Project2featWheels\Test_Motor.c:71: printf("right motor moving backward at 100 speed (Enter anything please) \n");
04FD 7440      1177            mov     a,#__str_20
04FF C0E0      1178            push    acc
0501 7491      1179            mov     a,#(__str_20 >> 8)
0503 C0E0      1180            push    acc
0505 7480      1181            mov     a,#0x80
0507 C0E0      1182            push    acc
0509 120100    1183            lcall   _printf
050C 1581      1184            dec     sp
050E 1581      1185            dec     sp
0510 1581      1186            dec     sp
0512           1187   ;        C:\Users\o6z8\Documents\GitHub\EECE281-56Wheels-Project2featWheels\Test_Motor.c:72: scanf("%d", &input);
0512 7400      1188            mov     a,#_main_input_1_47
0514 C0E0      1189            push    acc
0516 7486      1190            mov     a,#(_main_input_1_47 >> 8)
0518 C0E0      1191            push    acc
051A 7440      1192            mov     a,#0x40
051C C0E0      1193            push    acc
051E 74C0      1194            mov     a,#__str_12
0520 C0E0      1195            push    acc
0522 748D      1196            mov     a,#(__str_12 >> 8)
0524 C0E0      1197            push    acc
0526 7480      1198            mov     a,#0x80
0528 C0E0      1199            push    acc
052A 120100    1200            lcall   _scanf
052D E581      1201            mov     a,sp
052F 24FA      1202            add     a,#0xfa
0531 F581      1203            mov     sp,a
0533           1204   ;        C:\Users\o6z8\Documents\GitHub\EECE281-56Wheels-Project2featWheels\Test_Motor.c:74: Motor_Set(MOTOR_LEFT, 50, MOTOR_FORWARD);
0533 759032    1205            mov     _Motor_Set_PARM_2,#0x32
0536 754001    1206            mov     _Motor_Set_PARM_3,#0x01
0539 E4        1207            clr     a
053A F541      1208            mov     (_Motor_Set_PARM_3 + 1),a
053C 900000    1209            mov     dptr,#0x0000
053F 120100    1210            lcall   _Motor_Set
0542           1211   ;        C:\Users\o6z8\Documents\GitHub\EECE281-56Wheels-Project2featWheels\Test_Motor.c:75: Motor_Set(MOTOR_RIGHT, 50, MOTOR_BACKWARD);                 
0542 759032    1212            mov     _Motor_Set_PARM_2,#0x32
0545 E4        1213            clr     a
0546 F540      1214            mov     _Motor_Set_PARM_3,a
0548 F541      1215            mov     (_Motor_Set_PARM_3 + 1),a
054A 900001    1216            mov     dptr,#0x0001
054D 120100    1217            lcall   _Motor_Set
0550           1218   ;        C:\Users\o6z8\Documents\GitHub\EECE281-56Wheels-Project2featWheels\Test_Motor.c:76: printf("left forward, right backward at 50 speed (Enter anything please) \n");
0550 7480      1219            mov     a,#__str_21
0552 C0E0      1220            push    acc
0554 7491      1221            mov     a,#(__str_21 >> 8)
0556 C0E0      1222            push    acc
0558 7480      1223            mov     a,#0x80
055A C0E0      1224            push    acc
055C 120100    1225            lcall   _printf
055F 1581      1226            dec     sp
0561 1581      1227            dec     sp
0563 1581      1228            dec     sp
0565           1229   ;        C:\Users\o6z8\Documents\GitHub\EECE281-56Wheels-Project2featWheels\Test_Motor.c:77: scanf("%d", &input);
0565 7400      1230            mov     a,#_main_input_1_47
0567 C0E0      1231            push    acc
0569 7486      1232            mov     a,#(_main_input_1_47 >> 8)
056B C0E0      1233            push    acc
056D 7440      1234            mov     a,#0x40
056F C0E0      1235            push    acc
0571 74C0      1236            mov     a,#__str_12
0573 C0E0      1237            push    acc
0575 748D      1238            mov     a,#(__str_12 >> 8)
0577 C0E0      1239            push    acc
0579 7480      1240            mov     a,#0x80
057B C0E0      1241            push    acc
057D 120100    1242            lcall   _scanf
0580 E581      1243            mov     a,sp
0582 24FA      1244            add     a,#0xfa
0584 F581      1245            mov     sp,a
0586           1246   ;        C:\Users\o6z8\Documents\GitHub\EECE281-56Wheels-Project2featWheels\Test_Motor.c:79: Motor_Set(MOTOR_RIGHT, 50, MOTOR_FORWARD);
0586 759032    1247            mov     _Motor_Set_PARM_2,#0x32
0589 754001    1248            mov     _Motor_Set_PARM_3,#0x01
058C E4        1249            clr     a
058D F541      1250            mov     (_Motor_Set_PARM_3 + 1),a
058F 900001    1251            mov     dptr,#0x0001
0592 120100    1252            lcall   _Motor_Set
0595           1253   ;        C:\Users\o6z8\Documents\GitHub\EECE281-56Wheels-Project2featWheels\Test_Motor.c:80: Motor_Set(MOTOR_LEFT, 50, MOTOR_BACKWARD);          
0595 759032    1254            mov     _Motor_Set_PARM_2,#0x32
0598 E4        1255            clr     a
0599 F540      1256            mov     _Motor_Set_PARM_3,a
059B F541      1257            mov     (_Motor_Set_PARM_3 + 1),a
059D F582      1258            mov     dpl,a
059F F583      1259            mov     dph,a
05A1 120100    1260            lcall   _Motor_Set
05A4           1261   ;        C:\Users\o6z8\Documents\GitHub\EECE281-56Wheels-Project2featWheels\Test_Motor.c:81: printf("left backward, right forward at 50 speed (Enter anything please) \n");
05A4 74C0      1262            mov     a,#__str_22
05A6 C0E0      1263            push    acc
05A8 7491      1264            mov     a,#(__str_22 >> 8)
05AA C0E0      1265            push    acc
05AC 7480      1266            mov     a,#0x80
05AE C0E0      1267            push    acc
05B0 120100    1268            lcall   _printf
05B3 1581      1269            dec     sp
05B5 1581      1270            dec     sp
05B7 1581      1271            dec     sp
05B9           1272   ;        C:\Users\o6z8\Documents\GitHub\EECE281-56Wheels-Project2featWheels\Test_Motor.c:82: scanf("%d", &input);
05B9 7400      1273            mov     a,#_main_input_1_47
05BB C0E0      1274            push    acc
05BD 7486      1275            mov     a,#(_main_input_1_47 >> 8)
05BF C0E0      1276            push    acc
05C1 7440      1277            mov     a,#0x40
05C3 C0E0      1278            push    acc
05C5 74C0      1279            mov     a,#__str_12
05C7 C0E0      1280            push    acc
05C9 748D      1281            mov     a,#(__str_12 >> 8)
05CB C0E0      1282            push    acc
05CD 7480      1283            mov     a,#0x80
05CF C0E0      1284            push    acc
05D1 120100    1285            lcall   _scanf
05D4 E581      1286            mov     a,sp
05D6 24FA      1287            add     a,#0xfa
05D8 F581      1288            mov     sp,a
05DA           1289   ;        C:\Users\o6z8\Documents\GitHub\EECE281-56Wheels-Project2featWheels\Test_Motor.c:84: Motor_Forward(25);  
05DA 758219    1290            mov     dpl,#0x19
05DD 120100    1291            lcall   _Motor_Forward
05E0           1292   ;        C:\Users\o6z8\Documents\GitHub\EECE281-56Wheels-Project2featWheels\Test_Motor.c:85: printf("both forward at 25 speed (Enter anything please) \n");
05E0 7400      1293            mov     a,#__str_23
05E2 C0E0      1294            push    acc
05E4 7492      1295            mov     a,#(__str_23 >> 8)
05E6 C0E0      1296            push    acc
05E8 7480      1297            mov     a,#0x80
05EA C0E0      1298            push    acc
05EC 120100    1299            lcall   _printf
05EF 1581      1300            dec     sp
05F1 1581      1301            dec     sp
05F3 1581      1302            dec     sp
05F5           1303   ;        C:\Users\o6z8\Documents\GitHub\EECE281-56Wheels-Project2featWheels\Test_Motor.c:86: scanf("%d", &input);
05F5 7400      1304            mov     a,#_main_input_1_47
05F7 C0E0      1305            push    acc
05F9 7486      1306            mov     a,#(_main_input_1_47 >> 8)
05FB C0E0      1307            push    acc
05FD 7440      1308            mov     a,#0x40
05FF C0E0      1309            push    acc
0601 74C0      1310            mov     a,#__str_12
0603 C0E0      1311            push    acc
0605 748D      1312            mov     a,#(__str_12 >> 8)
0607 C0E0      1313            push    acc
0609 7480      1314            mov     a,#0x80
060B C0E0      1315            push    acc
060D 120100    1316            lcall   _scanf
0610 E581      1317            mov     a,sp
0612 24FA      1318            add     a,#0xfa
0614 F581      1319            mov     sp,a
0616           1320   ;        C:\Users\o6z8\Documents\GitHub\EECE281-56Wheels-Project2featWheels\Test_Motor.c:88: Motor_Forward(50);  
0616 758232    1321            mov     dpl,#0x32
0619 120100    1322            lcall   _Motor_Forward
061C           1323   ;        C:\Users\o6z8\Documents\GitHub\EECE281-56Wheels-Project2featWheels\Test_Motor.c:89: printf("both forward at 50 speed (Enter anything please) \n");
061C 7440      1324            mov     a,#__str_24
061E C0E0      1325            push    acc
0620 7492      1326            mov     a,#(__str_24 >> 8)
0622 C0E0      1327            push    acc
0624 7480      1328            mov     a,#0x80
0626 C0E0      1329            push    acc
0628 120100    1330            lcall   _printf
062B 1581      1331            dec     sp
062D 1581      1332            dec     sp
062F 1581      1333            dec     sp
0631           1334   ;        C:\Users\o6z8\Documents\GitHub\EECE281-56Wheels-Project2featWheels\Test_Motor.c:90: scanf("%d", &input);
0631 7400      1335            mov     a,#_main_input_1_47
0633 C0E0      1336            push    acc
0635 7486      1337            mov     a,#(_main_input_1_47 >> 8)
0637 C0E0      1338            push    acc
0639 7440      1339            mov     a,#0x40
063B C0E0      1340            push    acc
063D 74C0      1341            mov     a,#__str_12
063F C0E0      1342            push    acc
0641 748D      1343            mov     a,#(__str_12 >> 8)
0643 C0E0      1344            push    acc
0645 7480      1345            mov     a,#0x80
0647 C0E0      1346            push    acc
0649 120100    1347            lcall   _scanf
064C E581      1348            mov     a,sp
064E 24FA      1349            add     a,#0xfa
0650 F581      1350            mov     sp,a
0652           1351   ;        C:\Users\o6z8\Documents\GitHub\EECE281-56Wheels-Project2featWheels\Test_Motor.c:92: Motor_Forward(75);  
0652 75824B    1352            mov     dpl,#0x4B
0655 120100    1353            lcall   _Motor_Forward
0658           1354   ;        C:\Users\o6z8\Documents\GitHub\EECE281-56Wheels-Project2featWheels\Test_Motor.c:93: printf("both forward at 75 speed (Enter anything please) \n");
0658 7480      1355            mov     a,#__str_25
065A C0E0      1356            push    acc
065C 7492      1357            mov     a,#(__str_25 >> 8)
065E C0E0      1358            push    acc
0660 7480      1359            mov     a,#0x80
0662 C0E0      1360            push    acc
0664 120100    1361            lcall   _printf
0667 1581      1362            dec     sp
0669 1581      1363            dec     sp
066B 1581      1364            dec     sp
066D           1365   ;        C:\Users\o6z8\Documents\GitHub\EECE281-56Wheels-Project2featWheels\Test_Motor.c:94: scanf("%d", &input);
066D 7400      1366            mov     a,#_main_input_1_47
066F C0E0      1367            push    acc
0671 7486      1368            mov     a,#(_main_input_1_47 >> 8)
0673 C0E0      1369            push    acc
0675 7440      1370            mov     a,#0x40
0677 C0E0      1371            push    acc
0679 74C0      1372            mov     a,#__str_12
067B C0E0      1373            push    acc
067D 748D      1374            mov     a,#(__str_12 >> 8)
067F C0E0      1375            push    acc
0681 7480      1376            mov     a,#0x80
0683 C0E0      1377            push    acc
0685 120100    1378            lcall   _scanf
0688 E581      1379            mov     a,sp
068A 24FA      1380            add     a,#0xfa
068C F581      1381            mov     sp,a
068E           1382   ;        C:\Users\o6z8\Documents\GitHub\EECE281-56Wheels-Project2featWheels\Test_Motor.c:96: Motor_Forward(100);         
068E 758264    1383            mov     dpl,#0x64
0691 120100    1384            lcall   _Motor_Forward
0694           1385   ;        C:\Users\o6z8\Documents\GitHub\EECE281-56Wheels-Project2featWheels\Test_Motor.c:97: printf("both forward at 75 speed (Enter anything please) \n");
0694 7480      1386            mov     a,#__str_25
0696 C0E0      1387            push    acc
0698 7492      1388            mov     a,#(__str_25 >> 8)
069A C0E0      1389            push    acc
069C 7480      1390            mov     a,#0x80
069E C0E0      1391            push    acc
06A0 120100    1392            lcall   _printf
06A3 1581      1393            dec     sp
06A5 1581      1394            dec     sp
06A7 1581      1395            dec     sp
06A9           1396   ;        C:\Users\o6z8\Documents\GitHub\EECE281-56Wheels-Project2featWheels\Test_Motor.c:98: scanf("%d", &input);
06A9 7400      1397            mov     a,#_main_input_1_47
06AB C0E0      1398            push    acc
06AD 7486      1399            mov     a,#(_main_input_1_47 >> 8)
06AF C0E0      1400            push    acc
06B1 7440      1401            mov     a,#0x40
06B3 C0E0      1402            push    acc
06B5 74C0      1403            mov     a,#__str_12
06B7 C0E0      1404            push    acc
06B9 748D      1405            mov     a,#(__str_12 >> 8)
06BB C0E0      1406            push    acc
06BD 7480      1407            mov     a,#0x80
06BF C0E0      1408            push    acc
06C1 120100    1409            lcall   _scanf
06C4 E581      1410            mov     a,sp
06C6 24FA      1411            add     a,#0xfa
06C8 F581      1412            mov     sp,a
06CA           1413   ;        C:\Users\o6z8\Documents\GitHub\EECE281-56Wheels-Project2featWheels\Test_Motor.c:100: Motor_Backward(25);        
06CA 758219    1414            mov     dpl,#0x19
06CD 120100    1415            lcall   _Motor_Backward
06D0           1416   ;        C:\Users\o6z8\Documents\GitHub\EECE281-56Wheels-Project2featWheels\Test_Motor.c:101: printf("both backward at 25 speed (Enter anything please) \n");
06D0 74C0      1417            mov     a,#__str_26
06D2 C0E0      1418            push    acc
06D4 7492      1419            mov     a,#(__str_26 >> 8)
06D6 C0E0      1420            push    acc
06D8 7480      1421            mov     a,#0x80
06DA C0E0      1422            push    acc
06DC 120100    1423            lcall   _printf
06DF 1581      1424            dec     sp
06E1 1581      1425            dec     sp
06E3 1581      1426            dec     sp
06E5           1427   ;        C:\Users\o6z8\Documents\GitHub\EECE281-56Wheels-Project2featWheels\Test_Motor.c:102: scanf("%d", &input);
06E5 7400      1428            mov     a,#_main_input_1_47
06E7 C0E0      1429            push    acc
06E9 7486      1430            mov     a,#(_main_input_1_47 >> 8)
06EB C0E0      1431            push    acc
06ED 7440      1432            mov     a,#0x40
06EF C0E0      1433            push    acc
06F1 74C0      1434            mov     a,#__str_12
06F3 C0E0      1435            push    acc
06F5 748D      1436            mov     a,#(__str_12 >> 8)
06F7 C0E0      1437            push    acc
06F9 7480      1438            mov     a,#0x80
06FB C0E0      1439            push    acc
06FD 120100    1440            lcall   _scanf
0700 E581      1441            mov     a,sp
0702 24FA      1442            add     a,#0xfa
0704 F581      1443            mov     sp,a
0706           1444   ;        C:\Users\o6z8\Documents\GitHub\EECE281-56Wheels-Project2featWheels\Test_Motor.c:104: Motor_Backward(50);
0706 758232    1445            mov     dpl,#0x32
0709 120100    1446            lcall   _Motor_Backward
070C           1447   ;        C:\Users\o6z8\Documents\GitHub\EECE281-56Wheels-Project2featWheels\Test_Motor.c:105: printf("both backward at 50 speed (Enter anything please) \n");
070C 7400      1448            mov     a,#__str_27
070E C0E0      1449            push    acc
0710 7493      1450            mov     a,#(__str_27 >> 8)
0712 C0E0      1451            push    acc
0714 7480      1452            mov     a,#0x80
0716 C0E0      1453            push    acc
0718 120100    1454            lcall   _printf
071B 1581      1455            dec     sp
071D 1581      1456            dec     sp
071F 1581      1457            dec     sp
0721           1458   ;        C:\Users\o6z8\Documents\GitHub\EECE281-56Wheels-Project2featWheels\Test_Motor.c:106: scanf("%d", &input);
0721 7400      1459            mov     a,#_main_input_1_47
0723 C0E0      1460            push    acc
0725 7486      1461            mov     a,#(_main_input_1_47 >> 8)
0727 C0E0      1462            push    acc
0729 7440      1463            mov     a,#0x40
072B C0E0      1464            push    acc
072D 74C0      1465            mov     a,#__str_12
072F C0E0      1466            push    acc
0731 748D      1467            mov     a,#(__str_12 >> 8)
0733 C0E0      1468            push    acc
0735 7480      1469            mov     a,#0x80
0737 C0E0      1470            push    acc
0739 120100    1471            lcall   _scanf
073C E581      1472            mov     a,sp
073E 24FA      1473            add     a,#0xfa
0740 F581      1474            mov     sp,a
0742           1475   ;        C:\Users\o6z8\Documents\GitHub\EECE281-56Wheels-Project2featWheels\Test_Motor.c:108: Motor_Backward(75);        
0742 75824B    1476            mov     dpl,#0x4B
0745 120100    1477            lcall   _Motor_Backward
0748           1478   ;        C:\Users\o6z8\Documents\GitHub\EECE281-56Wheels-Project2featWheels\Test_Motor.c:109: printf("both backward at 75 speed (Enter anything please) \n");
0748 7440      1479            mov     a,#__str_28
074A C0E0      1480            push    acc
074C 7493      1481            mov     a,#(__str_28 >> 8)
074E C0E0      1482            push    acc
0750 7480      1483            mov     a,#0x80
0752 C0E0      1484            push    acc
0754 120100    1485            lcall   _printf
0757 1581      1486            dec     sp
0759 1581      1487            dec     sp
075B 1581      1488            dec     sp
075D           1489   ;        C:\Users\o6z8\Documents\GitHub\EECE281-56Wheels-Project2featWheels\Test_Motor.c:110: scanf("%d", &input);
075D 7400      1490            mov     a,#_main_input_1_47
075F C0E0      1491            push    acc
0761 7486      1492            mov     a,#(_main_input_1_47 >> 8)
0763 C0E0      1493            push    acc
0765 7440      1494            mov     a,#0x40
0767 C0E0      1495            push    acc
0769 74C0      1496            mov     a,#__str_12
076B C0E0      1497            push    acc
076D 748D      1498            mov     a,#(__str_12 >> 8)
076F C0E0      1499            push    acc
0771 7480      1500            mov     a,#0x80
0773 C0E0      1501            push    acc
0775 120100    1502            lcall   _scanf
0778 E581      1503            mov     a,sp
077A 24FA      1504            add     a,#0xfa
077C F581      1505            mov     sp,a
077E           1506   ;        C:\Users\o6z8\Documents\GitHub\EECE281-56Wheels-Project2featWheels\Test_Motor.c:112: Motor_Backward(100);       
077E 758264    1507            mov     dpl,#0x64
0781 120100    1508            lcall   _Motor_Backward
0784           1509   ;        C:\Users\o6z8\Documents\GitHub\EECE281-56Wheels-Project2featWheels\Test_Motor.c:113: printf("both backward at 75 speed (Enter anything please) \n");
0784 7440      1510            mov     a,#__str_28
0786 C0E0      1511            push    acc
0788 7493      1512            mov     a,#(__str_28 >> 8)
078A C0E0      1513            push    acc
078C 7480      1514            mov     a,#0x80
078E C0E0      1515            push    acc
0790 120100    1516            lcall   _printf
0793 1581      1517            dec     sp
0795 1581      1518            dec     sp
0797 1581      1519            dec     sp
0799           1520   ;        C:\Users\o6z8\Documents\GitHub\EECE281-56Wheels-Project2featWheels\Test_Motor.c:114: scanf("%d", &input);
0799 7400      1521            mov     a,#_main_input_1_47
079B C0E0      1522            push    acc
079D 7486      1523            mov     a,#(_main_input_1_47 >> 8)
079F C0E0      1524            push    acc
07A1 7440      1525            mov     a,#0x40
07A3 C0E0      1526            push    acc
07A5 74C0      1527            mov     a,#__str_12
07A7 C0E0      1528            push    acc
07A9 748D      1529            mov     a,#(__str_12 >> 8)
07AB C0E0      1530            push    acc
07AD 7480      1531            mov     a,#0x80
07AF C0E0      1532            push    acc
07B1 120100    1533            lcall   _scanf
07B4 E581      1534            mov     a,sp
07B6 24FA      1535            add     a,#0xfa
07B8 F581      1536            mov     sp,a
07BA 020100    1537            ljmp    L010002?
07BD           1538            rseg R_CSEG
07BD           1539   
0000           1540            rseg R_XINIT
0000           1541   
0000           1542            rseg R_CONST
0000           1543   __str_0:
0000 4D6F746F  1544            db 'Motor Init'
     7220496E
     6974
000A 0A        1545            db 0x0A
000B 00        1546            db 0x00
000C           1547   __str_1:
000C 1B        1548            db 0x1B
000D 5B324A    1549            db '[2J'
0010 00        1550            db 0x00
0011           1551   __str_2:
0011 1B        1552            db 0x1B
0012 5B303B33  1553            db '[0;3%d;4%dm'
     25643B34
     25646D
001D 00        1554            db 0x00
001E           1555   __str_3:
001E C9        1556            db 0xC9
001F CD        1557            db 0xCD
0020 CD        1558            db 0xCD
0021 CD        1559            db 0xCD
0022 CD        1560            db 0xCD
0023 CD        1561            db 0xCD
0024 CD        1562            db 0xCD
0025 CD        1563            db 0xCD
0026 CD        1564            db 0xCD
0027 CD        1565            db 0xCD
0028 CD        1566            db 0xCD
0029 CD        1567            db 0xCD
002A CD        1568            db 0xCD
002B CB        1569            db 0xCB
002C CD        1570            db 0xCD
002D CD        1571            db 0xCD
002E CD        1572            db 0xCD
002F CD        1573            db 0xCD
0030 CD        1574            db 0xCD
0031 CD        1575            db 0xCD
0032 CD        1576            db 0xCD
0033 CD        1577            db 0xCD
0034 CD        1578            db 0xCD
0035 CD        1579            db 0xCD
0036 CD        1580            db 0xCD
0037 CD        1581            db 0xCD
0038 BB        1582            db 0xBB
0039 0A        1583            db 0x0A
003A 00        1584            db 0x00
003B           1585   __str_4:
003B BA        1586            db 0xBA
003C 20537065  1587            db ' Speed L    '
     6564204C
     20202020
0048 BA        1588            db 0xBA
0049 20202020  1589            db '            '
     20202020
     20202020
0055 BA        1590            db 0xBA
0056 0A        1591            db 0x0A
0057 00        1592            db 0x00
0058           1593   __str_5:
0058 CC        1594            db 0xCC
0059 CD        1595            db 0xCD
005A CD        1596            db 0xCD
005B CD        1597            db 0xCD
005C CD        1598            db 0xCD
005D CD        1599            db 0xCD
005E CD        1600            db 0xCD
005F CD        1601            db 0xCD
0060 CD        1602            db 0xCD
0061 CD        1603            db 0xCD
0062 CD        1604            db 0xCD
0063 CD        1605            db 0xCD
0064 CD        1606            db 0xCD
0065 CE        1607            db 0xCE
0066 CD        1608            db 0xCD
0067 CD        1609            db 0xCD
0068 CD        1610            db 0xCD
0069 CD        1611            db 0xCD
006A CD        1612            db 0xCD
006B CD        1613            db 0xCD
006C CD        1614            db 0xCD
006D CD        1615            db 0xCD
006E CD        1616            db 0xCD
006F CD        1617            db 0xCD
0070 CD        1618            db 0xCD
0071 CD        1619            db 0xCD
0072 B9        1620            db 0xB9
0073 0A        1621            db 0x0A
0074 00        1622            db 0x00
0075           1623   __str_6:
0075 BA        1624            db 0xBA
0076 20537065  1625            db ' Speed R    '
     65642052
     20202020
0082 BA        1626            db 0xBA
0083 20202020  1627            db '            '
     20202020
     20202020
008F BA        1628            db 0xBA
0090 0A        1629            db 0x0A
0091 00        1630            db 0x00
0092           1631   __str_7:
0092 BA        1632            db 0xBA
0093 20446972  1633            db ' Direction L'
     65637469
     6F6E204C
009F BA        1634            db 0xBA
00A0 20202020  1635            db '            '
     20202020
     20202020
00AC BA        1636            db 0xBA
00AD 0A        1637            db 0x0A
00AE 00        1638            db 0x00
00AF           1639   __str_8:
00AF BA        1640            db 0xBA
00B0 20446972  1641            db ' Direction R'
     65637469
     6F6E2052
00BC BA        1642            db 0xBA
00BD 20202020  1643            db '            '
     20202020
     20202020
00C9 BA        1644            db 0xBA
00CA 0A        1645            db 0x0A
00CB 00        1646            db 0x00
00CC           1647   __str_9:
00CC BA        1648            db 0xBA
00CD 20202020  1649            db '            '
     20202020
     20202020
00D9 BA        1650            db 0xBA
00DA 20202020  1651            db '            '
     20202020
     20202020
00E6 BA        1652            db 0xBA
00E7 0A        1653            db 0x0A
00E8 00        1654            db 0x00
00E9           1655   __str_10:
00E9 C8        1656            db 0xC8
00EA CD        1657            db 0xCD
00EB CD        1658            db 0xCD
00EC CD        1659            db 0xCD
00ED CD        1660            db 0xCD
00EE CD        1661            db 0xCD
00EF CD        1662            db 0xCD
00F0 CD        1663            db 0xCD
00F1 CD        1664            db 0xCD
00F2 CD        1665            db 0xCD
00F3 CD        1666            db 0xCD
00F4 CD        1667            db 0xCD
00F5 CD        1668            db 0xCD
00F6 CA        1669            db 0xCA
00F7 CD        1670            db 0xCD
00F8 CD        1671            db 0xCD
00F9 CD        1672            db 0xCD
00FA CD        1673            db 0xCD
00FB CD        1674            db 0xCD
00FC CD        1675            db 0xCD
00FD CD        1676            db 0xCD
00FE CD        1677            db 0xCD
00FF CD        1678            db 0xCD
0100 CD        1679            db 0xCD
0101 CD        1680            db 0xCD
0102 CD        1681            db 0xCD
0103 BC        1682            db 0xBC
0104 0A        1683            db 0x0A
0105 00        1684            db 0x00
0106           1685   __str_11:
0106 1B        1686            db 0x1B
0107 5B25643B  1687            db '[%d;%dH'
     256448
010E 00        1688            db 0x00
010F           1689   __str_12:
010F 2564      1690            db '%d'
0111 00        1691            db 0x00
0112           1692   __str_13:
0112 2573      1693            db '%s'
0114 00        1694            db 0x00
0115           1695   __str_14:
0115 46776420  1696            db 'Fwd '
0119 00        1697            db 0x00
011A           1698   __str_15:
011A 526576    1699            db 'Rev'
011D 00        1700            db 0x00
011E           1701   __str_16:
011E 4E6F7468  1702            db 'Nothing is moving (Enter anything please) '
     696E6720
     6973206D
     6F76696E
     67202845
     6E746572
     20616E79
     7468696E
     6720706C
     65617365
     2920
0148 0A        1703            db 0x0A
0149 00        1704            db 0x00
014A           1705   __str_17:
014A 6C656674  1706            db 'left motor moving forward at 100 speed (Enter anything pleas'
     206D6F74
     6F72206D
     6F76696E
     6720666F
     72776172
     64206174
     20313030
     20737065
     65642028
     456E7465
     7220616E
     79746869
     6E672070
     6C656173
0186 652920    1707            db 'e) '
0189 0A        1708            db 0x0A
018A 00        1709            db 0x00
018B           1710   __str_18:
018B 6C656674  1711            db 'left motor moving backward at 100 speed (Enter anything plea'
     206D6F74
     6F72206D
     6F76696E
     67206261
     636B7761
     72642061
     74203130
     30207370
     65656420
     28456E74
     65722061
     6E797468
     696E6720
     706C6561
01C7 73652920  1712            db 'se) '
01CB 0A        1713            db 0x0A
01CC 00        1714            db 0x00
01CD           1715   __str_19:
01CD 72696768  1716            db 'right motor moving forward at 100 speed (Enter anything plea'
     74206D6F
     746F7220
     6D6F7669
     6E672066
     6F727761
     72642061
     74203130
     30207370
     65656420
     28456E74
     65722061
     6E797468
     696E6720
     706C6561
0209 73652920  1717            db 'se) '
020D 0A        1718            db 0x0A
020E 00        1719            db 0x00
020F           1720   __str_20:
020F 72696768  1721            db 'right motor moving backward at 100 speed (Enter anything ple'
     74206D6F
     746F7220
     6D6F7669
     6E672062
     61636B77
     61726420
     61742031
     30302073
     70656564
     2028456E
     74657220
     616E7974
     68696E67
     20706C65
024B 61736529  1722            db 'ase) '
     20
0250 0A        1723            db 0x0A
0251 00        1724            db 0x00
0252           1725   __str_21:
0252 6C656674  1726            db 'left forward, right backward at 50 speed (Enter anything ple'
     20666F72
     77617264
     2C207269
     67687420
     6261636B
     77617264
     20617420
     35302073
     70656564
     2028456E
     74657220
     616E7974
     68696E67
     20706C65
028E 61736529  1727            db 'ase) '
     20
0293 0A        1728            db 0x0A
0294 00        1729            db 0x00
0295           1730   __str_22:
0295 6C656674  1731            db 'left backward, right forward at 50 speed (Enter anything ple'
     20626163
     6B776172
     642C2072
     69676874
     20666F72
     77617264
     20617420
     35302073
     70656564
     2028456E
     74657220
     616E7974
     68696E67
     20706C65
02D1 61736529  1732            db 'ase) '
     20
02D6 0A        1733            db 0x0A
02D7 00        1734            db 0x00
02D8           1735   __str_23:
02D8 626F7468  1736            db 'both forward at 25 speed (Enter anything please) '
     20666F72
     77617264
     20617420
     32352073
     70656564
     2028456E
     74657220
     616E7974
     68696E67
     20706C65
     61736529
     20
0309 0A        1737            db 0x0A
030A 00        1738            db 0x00
030B           1739   __str_24:
030B 626F7468  1740            db 'both forward at 50 speed (Enter anything please) '
     20666F72
     77617264
     20617420
     35302073
     70656564
     2028456E
     74657220
     616E7974
     68696E67
     20706C65
     61736529
     20
033C 0A        1741            db 0x0A
033D 00        1742            db 0x00
033E           1743   __str_25:
033E 626F7468  1744            db 'both forward at 75 speed (Enter anything please) '
     20666F72
     77617264
     20617420
     37352073
     70656564
     2028456E
     74657220
     616E7974
     68696E67
     20706C65
     61736529
     20
036F 0A        1745            db 0x0A
0370 00        1746            db 0x00
0371           1747   __str_26:
0371 626F7468  1748            db 'both backward at 25 speed (Enter anything please) '
     20626163
     6B776172
     64206174
     20323520
     73706565
     64202845
     6E746572
     20616E79
     7468696E
     6720706C
     65617365
     2920
03A3 0A        1749            db 0x0A
03A4 00        1750            db 0x00
03A5           1751   __str_27:
03A5 626F7468  1752            db 'both backward at 50 speed (Enter anything please) '
     20626163
     6B776172
     64206174
     20353020
     73706565
     64202845
     6E746572
     20616E79
     7468696E
     6720706C
     65617365
     2920
03D7 0A        1753            db 0x0A
03D8 00        1754            db 0x00
03D9           1755   __str_28:
03D9 626F7468  1756            db 'both backward at 75 speed (Enter anything please) '
     20626163
     6B776172
     64206174
     20373520
     73706565
     64202845
     6E746572
     20616E79
     7468696E
     6720706C
     65617365
     2920
040B 0A        1757            db 0x0A
040C 00        1758            db 0x00
040D           1759   
000E           1760            CSEG
000E           1761   
000E           1762   end
